; Function Attrs: mustprogress uwtable
define hidden noundef ptr @_Z21mk_bv1_blaster_tacticR11ast_managerRK10params_ref(ptr noundef nonnull align 8 dereferenceable(976) %m, ptr noundef nonnull align 8 dereferenceable(8) %p) local_unnamed_addr #3 personality ptr @__gxx_personality_v0 {
entry:
  %call = tail call noalias noundef ptr @_ZN6memory8allocateEm(i64 noundef 32)
  %m_ref_count.i.i = getelementptr inbounds i8, ptr %call, i64 8
  store i32 0, ptr %m_ref_count.i.i, align 8
  store ptr getelementptr inbounds ({ [25 x ptr] }, ptr @_ZTV18bv1_blaster_tactic, i64 0, i32 0, i64 2), ptr %call, align 8
  %m_params.i = getelementptr inbounds i8, ptr %call, i64 24
  tail call void @_ZN10params_refC1ERKS_(ptr noundef nonnull align 8 dereferenceable(8) %m_params.i, ptr noundef nonnull align 8 dereferenceable(8) %p)
  %call.i = invoke noalias noundef ptr @_ZN6memory8allocateEm(i64 noundef 672)
          to label %invoke.cont3.i unwind label %lpad2.i

invoke.cont3.i:                                   ; preds = %entry
  store ptr getelementptr inbounds ({ [4 x ptr] }, ptr @_ZTVN18bv1_blaster_tactic2rwE, i64 0, i32 0, i64 2), ptr %call.i, align 8
  %m_proof_mode.i.i.i.i = getelementptr inbounds i8, ptr %m, i64 712
  %0 = load i32, ptr %m_proof_mode.i.i.i.i, align 8
  %cmp.i.i.i.i = icmp ne i32 %0, 0
  %m_cfg.i.i.i = getelementptr inbounds i8, ptr %call.i, i64 536
  invoke void @_ZN12rewriter_tplIN18bv1_blaster_tactic6rw_cfgEEC2ER11ast_managerbRS1_(ptr noundef nonnull align 8 dereferenceable(536) %call.i, ptr noundef nonnull align 8 dereferenceable(976) %m, i1 noundef zeroext %cmp.i.i.i.i, ptr noundef nonnull align 8 dereferenceable(125) %m_cfg.i.i.i)
          to label %.noexc.i unwind label %lpad2.i

.noexc.i:                                         ; preds = %invoke.cont3.i
  store ptr getelementptr inbounds ({ [4 x ptr] }, ptr @_ZTVN18bv1_blaster_tactic2rwE, i64 0, i32 0, i64 2), ptr %call.i, align 8
  invoke void @_ZN18bv1_blaster_tactic6rw_cfgC2ER11ast_managerRK10params_ref(ptr noundef nonnull align 8 dereferenceable(125) %m_cfg.i.i.i, ptr noundef nonnull align 8 dereferenceable(976) %m, ptr noundef nonnull align 8 dereferenceable(8) %p)
          to label %_ZN18bv1_blaster_tacticC2ER11ast_managerRK10params_ref.exit unwind label %lpad.i.i.i

lpad.i.i.i:                                       ; preds = %.noexc.i
  %1 = landingpad { ptr, i32 }
          cleanup
  tail call void @_ZN12rewriter_tplIN18bv1_blaster_tactic6rw_cfgEED2Ev(ptr noundef nonnull align 8 dereferenceable(536) %call.i) #16
  br label %lpad2.body.i

lpad2.i:                                          ; preds = %invoke.cont3.i, %entry
  %2 = landingpad { ptr, i32 }
          cleanup
  br label %lpad2.body.i

lpad2.body.i:                                     ; preds = %lpad2.i, %lpad.i.i.i
  %eh.lpad-body.i = phi { ptr, i32 } [ %2, %lpad2.i ], [ %1, %lpad.i.i.i ]
  tail call void @_ZN10params_refD1Ev(ptr noundef nonnull align 8 dereferenceable(8) %m_params.i) #16
  resume { ptr, i32 } %eh.lpad-body.i

_ZN18bv1_blaster_tacticC2ER11ast_managerRK10params_ref.exit: ; preds = %.noexc.i
  %m_imp.i = getelementptr inbounds i8, ptr %call, i64 16
  store ptr %call.i, ptr %m_imp.i, align 8
  %call1 = tail call noundef ptr @_Z5cleanP6tactic(ptr noundef nonnull %call)
  ret ptr %call1
}